target datalayout = "e-m:e-p270:32:32-p271:32:32-p272:64:64-i64:64-i128:128-f80:128-n8:16:32:64-S128"
target triple = "x86_64-pc-linux-gnu"

%struct.jpeg_compress_struct = type { ptr, ptr, ptr, ptr, i32, i32, ptr, i32, i32, i32, i32, double, i32, i32, i32, ptr, [4 x ptr], [4 x ptr], [4 x ptr], [16 x i8], [16 x i8], [16 x i8], i32, ptr, i32, i32, i32, i32, i32, i32, i32, i32, i32, i8, i8, i8, i16, i16, i32, i32, i32, i32, i32, i32, i32, [4 x ptr], i32, i32, i32, [10 x i32], i32, i32, i32, i32, ptr, ptr, ptr, ptr, ptr, ptr, ptr, ptr, ptr, ptr, i32 }
%struct.phuff_entropy_encoder = type { %struct.jpeg_entropy_encoder, ptr, ptr, i32, ptr, i64, i64, i32, ptr, [4 x i32], i32, i32, i32, ptr, i32, i32, [4 x ptr], [4 x ptr] }
%struct.jpeg_entropy_encoder = type { ptr, ptr, ptr, ptr }
%struct.jpeg_error_mgr = type { ptr, ptr, ptr, ptr, ptr, i32, %union.anon, i32, i64, ptr, i32, ptr, i32, i32 }
%union.anon = type { [8 x i32], [48 x i8] }
%struct.jpeg_destination_mgr = type { ptr, i64, ptr, ptr, ptr }

; Function Attrs: nounwind uwtable
define internal void @dump_buffer(ptr noundef %0) #0 {
  %2 = alloca ptr, align 8
  %3 = alloca ptr, align 8
  store ptr %0, ptr %2, align 8, !tbaa !29
  call void @llvm.lifetime.start.p0(i64 8, ptr %3) #6
  %4 = load ptr, ptr %2, align 8, !tbaa !29
  %5 = getelementptr inbounds nuw %struct.phuff_entropy_encoder, ptr %4, i32 0, i32 8
  %6 = load ptr, ptr %5, align 8, !tbaa !41
  %7 = getelementptr inbounds nuw %struct.jpeg_compress_struct, ptr %6, i32 0, i32 6
  %8 = load ptr, ptr %7, align 8, !tbaa !72
  store ptr %8, ptr %3, align 8, !tbaa !98
  %9 = load ptr, ptr %3, align 8, !tbaa !98
  %10 = getelementptr inbounds nuw %struct.jpeg_destination_mgr, ptr %9, i32 0, i32 3
  %11 = load ptr, ptr %10, align 8, !tbaa !99
  %12 = load ptr, ptr %2, align 8, !tbaa !29
  %13 = getelementptr inbounds nuw %struct.phuff_entropy_encoder, ptr %12, i32 0, i32 8
  %14 = load ptr, ptr %13, align 8, !tbaa !41
  %15 = call i32 %11(ptr noundef %14)
  %16 = icmp ne i32 %15, 0
  br i1 %16, label %34, label %17

17:                                               ; preds = %1
  %18 = load ptr, ptr %2, align 8, !tbaa !29
  %19 = getelementptr inbounds nuw %struct.phuff_entropy_encoder, ptr %18, i32 0, i32 8
  %20 = load ptr, ptr %19, align 8, !tbaa !41
  %21 = getelementptr inbounds nuw %struct.jpeg_compress_struct, ptr %20, i32 0, i32 0
  %22 = load ptr, ptr %21, align 8, !tbaa !54
  %23 = getelementptr inbounds nuw %struct.jpeg_error_mgr, ptr %22, i32 0, i32 5
  store i32 24, ptr %23, align 8, !tbaa !55
  %24 = load ptr, ptr %2, align 8, !tbaa !29
  %25 = getelementptr inbounds nuw %struct.phuff_entropy_encoder, ptr %24, i32 0, i32 8
  %26 = load ptr, ptr %25, align 8, !tbaa !41
  %27 = getelementptr inbounds nuw %struct.jpeg_compress_struct, ptr %26, i32 0, i32 0
  %28 = load ptr, ptr %27, align 8, !tbaa !54
  %29 = getelementptr inbounds nuw %struct.jpeg_error_mgr, ptr %28, i32 0, i32 0
  %30 = load ptr, ptr %29, align 8, !tbaa !59
  %31 = load ptr, ptr %2, align 8, !tbaa !29
  %32 = getelementptr inbounds nuw %struct.phuff_entropy_encoder, ptr %31, i32 0, i32 8
  %33 = load ptr, ptr %32, align 8, !tbaa !41
  call void %30(ptr noundef %33)
  br label %34

34:                                               ; preds = %17, %1
  %35 = load ptr, ptr %3, align 8, !tbaa !98
  %36 = getelementptr inbounds nuw %struct.jpeg_destination_mgr, ptr %35, i32 0, i32 0
  %37 = load ptr, ptr %36, align 8, !tbaa !73
  %38 = load ptr, ptr %2, align 8, !tbaa !29
  %39 = getelementptr inbounds nuw %struct.phuff_entropy_encoder, ptr %38, i32 0, i32 4
  store ptr %37, ptr %39, align 8, !tbaa !75
  %40 = load ptr, ptr %3, align 8, !tbaa !98
  %41 = getelementptr inbounds nuw %struct.jpeg_destination_mgr, ptr %40, i32 0, i32 1
  %42 = load i64, ptr %41, align 8, !tbaa !76
  %43 = load ptr, ptr %2, align 8, !tbaa !29
  %44 = getelementptr inbounds nuw %struct.phuff_entropy_encoder, ptr %43, i32 0, i32 5
  store i64 %42, ptr %44, align 8, !tbaa !77
  call void @llvm.lifetime.end.p0(i64 8, ptr %3) #6
  ret void
}

; Function Attrs: nounwind uwtable
define internal void @flush_bits(ptr noundef %0) #0 {
  %2 = alloca ptr, align 8
  store ptr %0, ptr %2, align 8, !tbaa !29
  %3 = load ptr, ptr %2, align 8, !tbaa !29
  call void @emit_bits(ptr noundef %3, i32 noundef 127, i32 noundef 7)
  %4 = load ptr, ptr %2, align 8, !tbaa !29
  %5 = getelementptr inbounds nuw %struct.phuff_entropy_encoder, ptr %4, i32 0, i32 6
  store i64 0, ptr %5, align 8, !tbaa !63
  %6 = load ptr, ptr %2, align 8, !tbaa !29
  %7 = getelementptr inbounds nuw %struct.phuff_entropy_encoder, ptr %6, i32 0, i32 7
  store i32 0, ptr %7, align 8, !tbaa !64
  ret void
}

; Function Attrs: nounwind uwtable
define internal void @emit_restart(ptr noundef %0, i32 noundef %1) #0 {
  %3 = alloca ptr, align 8
  %4 = alloca i32, align 4
  %5 = alloca i32, align 4
  store ptr %0, ptr %3, align 8, !tbaa !29
  store i32 %1, ptr %4, align 4, !tbaa !35
  call void @llvm.lifetime.start.p0(i64 4, ptr %5) #6
  %6 = load ptr, ptr %3, align 8, !tbaa !29
  call void @emit_eobrun(ptr noundef %6)
  %7 = load ptr, ptr %3, align 8, !tbaa !29
  %8 = getelementptr inbounds nuw %struct.phuff_entropy_encoder, ptr %7, i32 0, i32 3
  %9 = load i32, ptr %8, align 8, !tbaa !42
  %10 = icmp ne i32 %9, 0
  br i1 %10, label %40, label %11

11:                                               ; preds = %2
  %12 = load ptr, ptr %3, align 8, !tbaa !29
  call void @flush_bits(ptr noundef %12)
  %13 = load ptr, ptr %3, align 8, !tbaa !29
  %14 = getelementptr inbounds nuw %struct.phuff_entropy_encoder, ptr %13, i32 0, i32 4
  %15 = load ptr, ptr %14, align 8, !tbaa !75
  %16 = getelementptr inbounds nuw i8, ptr %15, i32 1
  store ptr %16, ptr %14, align 8, !tbaa !75
  store i8 -1, ptr %15, align 1, !tbaa !58
  %17 = load ptr, ptr %3, align 8, !tbaa !29
  %18 = getelementptr inbounds nuw %struct.phuff_entropy_encoder, ptr %17, i32 0, i32 5
  %19 = load i64, ptr %18, align 8, !tbaa !77
  %20 = add i64 %19, -1
  store i64 %20, ptr %18, align 8, !tbaa !77
  %21 = icmp eq i64 %20, 0
  br i1 %21, label %22, label %24

22:                                               ; preds = %11
  %23 = load ptr, ptr %3, align 8, !tbaa !29
  call void @dump_buffer(ptr noundef %23)
  br label %24

24:                                               ; preds = %22, %11
  %25 = load i32, ptr %4, align 4, !tbaa !35
  %26 = add nsw i32 208, %25
  %27 = trunc i32 %26 to i8
  %28 = load ptr, ptr %3, align 8, !tbaa !29
  %29 = getelementptr inbounds nuw %struct.phuff_entropy_encoder, ptr %28, i32 0, i32 4
  %30 = load ptr, ptr %29, align 8, !tbaa !75
  %31 = getelementptr inbounds nuw i8, ptr %30, i32 1
  store ptr %31, ptr %29, align 8, !tbaa !75
  store i8 %27, ptr %30, align 1, !tbaa !58
  %32 = load ptr, ptr %3, align 8, !tbaa !29
  %33 = getelementptr inbounds nuw %struct.phuff_entropy_encoder, ptr %32, i32 0, i32 5
  %34 = load i64, ptr %33, align 8, !tbaa !77
  %35 = add i64 %34, -1
  store i64 %35, ptr %33, align 8, !tbaa !77
  %36 = icmp eq i64 %35, 0
  br i1 %36, label %37, label %39

37:                                               ; preds = %24
  %38 = load ptr, ptr %3, align 8, !tbaa !29
  call void @dump_buffer(ptr noundef %38)
  br label %39

39:                                               ; preds = %37, %24
  br label %40

40:                                               ; preds = %39, %2
  %41 = load ptr, ptr %3, align 8, !tbaa !29
  %42 = getelementptr inbounds nuw %struct.phuff_entropy_encoder, ptr %41, i32 0, i32 8
  %43 = load ptr, ptr %42, align 8, !tbaa !41
  %44 = getelementptr inbounds nuw %struct.jpeg_compress_struct, ptr %43, i32 0, i32 50
  %45 = load i32, ptr %44, align 4, !tbaa !43
  %46 = icmp eq i32 %45, 0
  br i1 %46, label %47, label %66

47:                                               ; preds = %40
  store i32 0, ptr %5, align 4, !tbaa !35
  br label %48

48:                                               ; preds = %62, %47
  %49 = load i32, ptr %5, align 4, !tbaa !35
  %50 = load ptr, ptr %3, align 8, !tbaa !29
  %51 = getelementptr inbounds nuw %struct.phuff_entropy_encoder, ptr %50, i32 0, i32 8
  %52 = load ptr, ptr %51, align 8, !tbaa !41
  %53 = getelementptr inbounds nuw %struct.jpeg_compress_struct, ptr %52, i32 0, i32 44
  %54 = load i32, ptr %53, align 4, !tbaa !49
  %55 = icmp slt i32 %49, %54
  br i1 %55, label %56, label %65

56:                                               ; preds = %48
  %57 = load ptr, ptr %3, align 8, !tbaa !29
  %58 = getelementptr inbounds nuw %struct.phuff_entropy_encoder, ptr %57, i32 0, i32 9
  %59 = load i32, ptr %5, align 4, !tbaa !35
  %60 = sext i32 %59 to i64
  %61 = getelementptr inbounds [4 x i32], ptr %58, i64 0, i64 %60
  store i32 0, ptr %61, align 4, !tbaa !35
  br label %62

62:                                               ; preds = %56
  %63 = load i32, ptr %5, align 4, !tbaa !35
  %64 = add nsw i32 %63, 1
  store i32 %64, ptr %5, align 4, !tbaa !35
  br label %48, !llvm.loop !96

65:                                               ; preds = %48
  br label %71

66:                                               ; preds = %40
  %67 = load ptr, ptr %3, align 8, !tbaa !29
  %68 = getelementptr inbounds nuw %struct.phuff_entropy_encoder, ptr %67, i32 0, i32 11
  store i32 0, ptr %68, align 4, !tbaa !61
  %69 = load ptr, ptr %3, align 8, !tbaa !29
  %70 = getelementptr inbounds nuw %struct.phuff_entropy_encoder, ptr %69, i32 0, i32 12
  store i32 0, ptr %70, align 8, !tbaa !62
  br label %71

71:                                               ; preds = %66, %65
  call void @llvm.lifetime.end.p0(i64 4, ptr %5) #6
  ret void
}