; Function Attrs: nounwind uwtable
define internal fastcc void @emit_restart(ptr noundef captures(none) %0, i32 noundef %1) unnamed_addr #0 {
  tail call fastcc void @emit_eobrun(ptr noundef %0)
  %3 = getelementptr inbounds nuw i8, ptr %0, i64 48
  %4 = load i32, ptr %3, align 8, !tbaa !35
  %.not = icmp eq i32 %4, 0
  br i1 %.not, label %5, label %55

5:                                                ; preds = %2
  tail call fastcc void @emit_bits(ptr noundef nonnull %0, i32 noundef 127, i32 noundef 7)
  %6 = getelementptr inbounds nuw i8, ptr %0, i64 72
  store i64 0, ptr %6, align 8, !tbaa !61
  %7 = getelementptr inbounds nuw i8, ptr %0, i64 80
  store i32 0, ptr %7, align 8, !tbaa !62
  %8 = getelementptr inbounds nuw i8, ptr %0, i64 56
  %9 = load ptr, ptr %8, align 8, !tbaa !71
  %10 = getelementptr inbounds nuw i8, ptr %9, i64 1
  store ptr %10, ptr %8, align 8, !tbaa !71
  store i8 -1, ptr %9, align 1, !tbaa !55
  %11 = getelementptr inbounds nuw i8, ptr %0, i64 64
  %12 = load i64, ptr %11, align 8, !tbaa !73
  %13 = add i64 %12, -1
  store i64 %13, ptr %11, align 8, !tbaa !73
  %14 = icmp eq i64 %13, 0
  br i1 %14, label %15, label %._crit_edge

._crit_edge:                                      ; preds = %5
  %.pre = load ptr, ptr %8, align 8, !tbaa !71
  br label %31

15:                                               ; preds = %5
  %16 = getelementptr inbounds nuw i8, ptr %0, i64 88
  %17 = load ptr, ptr %16, align 8, !tbaa !34
  %18 = getelementptr inbounds nuw i8, ptr %17, i64 40
  %19 = load ptr, ptr %18, align 8, !tbaa !68
  %20 = getelementptr inbounds nuw i8, ptr %19, i64 24
  %21 = load ptr, ptr %20, align 8, !tbaa !81
  %22 = tail call i32 %21(ptr noundef %17) #7
  %.not.i = icmp eq i32 %22, 0
  br i1 %.not.i, label %23, label %dump_buffer.exit

23:                                               ; preds = %15
  %24 = load ptr, ptr %16, align 8, !tbaa !34
  %25 = load ptr, ptr %24, align 8, !tbaa !51
  %26 = getelementptr inbounds nuw i8, ptr %25, i64 40
  store i32 24, ptr %26, align 8, !tbaa !52
  %27 = load ptr, ptr %25, align 8, !tbaa !56
  tail call void %27(ptr noundef nonnull %24) #7
  br label %dump_buffer.exit

dump_buffer.exit:                                 ; preds = %15, %23
  %28 = load ptr, ptr %19, align 8, !tbaa !69
  %29 = getelementptr inbounds nuw i8, ptr %19, i64 8
  %30 = load i64, ptr %29, align 8, !tbaa !72
  store i64 %30, ptr %11, align 8, !tbaa !73
  br label %31

31:                                               ; preds = %._crit_edge, %dump_buffer.exit
  %32 = phi ptr [ %.pre, %._crit_edge ], [ %28, %dump_buffer.exit ]
  %33 = trunc i32 %1 to i8
  %34 = add i8 %33, -48
  %35 = getelementptr inbounds nuw i8, ptr %32, i64 1
  store ptr %35, ptr %8, align 8, !tbaa !71
  store i8 %34, ptr %32, align 1, !tbaa !55
  %36 = load i64, ptr %11, align 8, !tbaa !73
  %37 = add i64 %36, -1
  store i64 %37, ptr %11, align 8, !tbaa !73
  %38 = icmp eq i64 %37, 0
  br i1 %38, label %39, label %55

39:                                               ; preds = %31
  %40 = getelementptr inbounds nuw i8, ptr %0, i64 88
  %41 = load ptr, ptr %40, align 8, !tbaa !34
  %42 = getelementptr inbounds nuw i8, ptr %41, i64 40
  %43 = load ptr, ptr %42, align 8, !tbaa !68
  %44 = getelementptr inbounds nuw i8, ptr %43, i64 24
  %45 = load ptr, ptr %44, align 8, !tbaa !81
  %46 = tail call i32 %45(ptr noundef %41) #7
  %.not.i17 = icmp eq i32 %46, 0
  br i1 %.not.i17, label %47, label %dump_buffer.exit18

47:                                               ; preds = %39
  %48 = load ptr, ptr %40, align 8, !tbaa !34
  %49 = load ptr, ptr %48, align 8, !tbaa !51
  %50 = getelementptr inbounds nuw i8, ptr %49, i64 40
  store i32 24, ptr %50, align 8, !tbaa !52
  %51 = load ptr, ptr %49, align 8, !tbaa !56
  tail call void %51(ptr noundef nonnull %48) #7
  br label %dump_buffer.exit18

dump_buffer.exit18:                               ; preds = %39, %47
  %52 = load ptr, ptr %43, align 8, !tbaa !69
  store ptr %52, ptr %8, align 8, !tbaa !71
  %53 = getelementptr inbounds nuw i8, ptr %43, i64 8
  %54 = load i64, ptr %53, align 8, !tbaa !72
  store i64 %54, ptr %11, align 8, !tbaa !73
  br label %55

55:                                               ; preds = %31, %dump_buffer.exit18, %2
  %56 = getelementptr inbounds nuw i8, ptr %0, i64 88
  %57 = load ptr, ptr %56, align 8, !tbaa !34
  %58 = getelementptr inbounds nuw i8, ptr %57, i64 412
  %59 = load i32, ptr %58, align 4, !tbaa !36
  %60 = icmp eq i32 %59, 0
  br i1 %60, label %.preheader, label %70

.preheader:                                       ; preds = %55
  %61 = getelementptr inbounds nuw i8, ptr %57, i64 324
  %62 = load i32, ptr %61, align 4, !tbaa !42
  %63 = icmp sgt i32 %62, 0
  br i1 %63, label %.lr.ph, label %.loopexit

.lr.ph:                                           ; preds = %.preheader
  %64 = getelementptr inbounds nuw i8, ptr %0, i64 96
  br label %65

65:                                               ; preds = %.lr.ph, %65
  %indvars.iv = phi i64 [ 0, %.lr.ph ], [ %indvars.iv.next, %65 ]
  %66 = getelementptr inbounds nuw [4 x i32], ptr %64, i64 0, i64 %indvars.iv
  store i32 0, ptr %66, align 4, !tbaa !44
  %indvars.iv.next = add nuw nsw i64 %indvars.iv, 1
  %67 = load i32, ptr %61, align 4, !tbaa !42
  %68 = sext i32 %67 to i64
  %69 = icmp slt i64 %indvars.iv.next, %68
  br i1 %69, label %65, label %.loopexit, !llvm.loop !96

70:                                               ; preds = %55
  %71 = getelementptr inbounds nuw i8, ptr %0, i64 116
  store i32 0, ptr %71, align 4, !tbaa !59
  %72 = getelementptr inbounds nuw i8, ptr %0, i64 120
  store i32 0, ptr %72, align 8, !tbaa !60
  br label %.loopexit

.loopexit:                                        ; preds = %65, %.preheader, %70
  ret void
}